target datalayout = "e-m:e-p270:32:32-p271:32:32-p272:64:64-i64:64-i128:128-f80:128-n8:16:32:64-S128"
target triple = "x86_64-pc-linux-gnu"

%struct.yy_buffer_state = type { ptr, ptr, ptr, i32, i32, i32, i32, i32, i32, i32, i32, i32 }

@V3PreLexin = dso_local global ptr null, align 8
@V3PreLextext = dso_local global ptr null, align 8
@_ZL15yy_buffer_stack = internal global ptr null, align 8
@_ZL19yy_buffer_stack_top = internal global i64 0, align 8
@_ZL10yy_c_buf_p = internal global ptr null, align 8
@_ZL12yy_hold_char = internal global i8 0, align 1
@_ZL10yy_n_chars = internal global i32 0, align 4
@.str.35 = private unnamed_addr constant [44 x i8] c"out of dynamic memory in yy_create_buffer()\00", align 1
@.str.235 = private unnamed_addr constant [49 x i8] c"out of dynamic memory in yyensure_buffer_stack()\00", align 1
@_ZL19yy_buffer_stack_max = internal global i64 0, align 8

; Function Attrs: mustprogress nounwind uwtable
define dso_local noundef ptr @_Z15V3PreLexreallocPvm(ptr noundef %0, i64 noundef %1) #4 {
  %3 = alloca ptr, align 8
  %4 = alloca i64, align 8
  store ptr %0, ptr %3, align 8, !tbaa !157
  store i64 %1, ptr %4, align 8, !tbaa !11
  %5 = load ptr, ptr %3, align 8, !tbaa !157
  %6 = load i64, ptr %4, align 8, !tbaa !11
  %7 = call ptr @realloc(ptr noundef %5, i64 noundef %6) #30
  ret ptr %7
}

; Function Attrs: mustprogress nounwind uwtable
define dso_local noundef ptr @_Z13V3PreLexallocm(i64 noundef %0) #4 {
  %2 = alloca i64, align 8
  store i64 %0, ptr %2, align 8, !tbaa !11
  %3 = load i64, ptr %2, align 8, !tbaa !11
  %4 = call noalias ptr @malloc(i64 noundef %3) #29
  ret ptr %4
}

; Function Attrs: mustprogress nounwind uwtable
define internal void @_ZL26V3PreLex_load_buffer_statev() #4 {
  %1 = load ptr, ptr @_ZL15yy_buffer_stack, align 8, !tbaa !15
  %2 = load i64, ptr @_ZL19yy_buffer_stack_top, align 8, !tbaa !11
  %3 = getelementptr inbounds nuw ptr, ptr %1, i64 %2
  %4 = load ptr, ptr %3, align 8, !tbaa !18
  %5 = getelementptr inbounds nuw %struct.yy_buffer_state, ptr %4, i32 0, i32 4
  %6 = load i32, ptr %5, align 4, !tbaa !61
  store i32 %6, ptr @_ZL10yy_n_chars, align 4, !tbaa !9
  %7 = load ptr, ptr @_ZL15yy_buffer_stack, align 8, !tbaa !15
  %8 = load i64, ptr @_ZL19yy_buffer_stack_top, align 8, !tbaa !11
  %9 = getelementptr inbounds nuw ptr, ptr %7, i64 %8
  %10 = load ptr, ptr %9, align 8, !tbaa !18
  %11 = getelementptr inbounds nuw %struct.yy_buffer_state, ptr %10, i32 0, i32 2
  %12 = load ptr, ptr %11, align 8, !tbaa !67
  store ptr %12, ptr @_ZL10yy_c_buf_p, align 8, !tbaa !4
  store ptr %12, ptr @V3PreLextext, align 8, !tbaa !4
  %13 = load ptr, ptr @_ZL15yy_buffer_stack, align 8, !tbaa !15
  %14 = load i64, ptr @_ZL19yy_buffer_stack_top, align 8, !tbaa !11
  %15 = getelementptr inbounds nuw ptr, ptr %13, i64 %14
  %16 = load ptr, ptr %15, align 8, !tbaa !18
  %17 = getelementptr inbounds nuw %struct.yy_buffer_state, ptr %16, i32 0, i32 0
  %18 = load ptr, ptr %17, align 8, !tbaa !62
  store ptr %18, ptr @V3PreLexin, align 8, !tbaa !13
  %19 = load ptr, ptr @_ZL10yy_c_buf_p, align 8, !tbaa !4
  %20 = load i8, ptr %19, align 1, !tbaa !20
  store i8 %20, ptr @_ZL12yy_hold_char, align 1, !tbaa !20
  ret void
}

; Function Attrs: mustprogress uwtable
define dso_local noundef ptr @_Z22V3PreLex_create_bufferP8_IO_FILEi(ptr noundef %0, i32 noundef %1) #5 {
  %3 = alloca ptr, align 8
  %4 = alloca i32, align 4
  %5 = alloca ptr, align 8
  store ptr %0, ptr %3, align 8, !tbaa !13
  store i32 %1, ptr %4, align 4, !tbaa !9
  call void @llvm.lifetime.start.p0(i64 8, ptr %5) #3
  %6 = call noundef ptr @_Z13V3PreLexallocm(i64 noundef 64)
  store ptr %6, ptr %5, align 8, !tbaa !18
  %7 = load ptr, ptr %5, align 8, !tbaa !18
  %8 = icmp ne ptr %7, null
  br i1 %8, label %10, label %9

9:                                                ; preds = %2
  call void @_ZL14yy_fatal_errorPKc(ptr noundef @.str.35) #26
  unreachable

10:                                               ; preds = %2
  %11 = load i32, ptr %4, align 4, !tbaa !9
  %12 = load ptr, ptr %5, align 8, !tbaa !18
  %13 = getelementptr inbounds nuw %struct.yy_buffer_state, ptr %12, i32 0, i32 3
  store i32 %11, ptr %13, align 8, !tbaa !65
  %14 = load ptr, ptr %5, align 8, !tbaa !18
  %15 = getelementptr inbounds nuw %struct.yy_buffer_state, ptr %14, i32 0, i32 3
  %16 = load i32, ptr %15, align 8, !tbaa !65
  %17 = add nsw i32 %16, 2
  %18 = sext i32 %17 to i64
  %19 = call noundef ptr @_Z13V3PreLexallocm(i64 noundef %18)
  %20 = load ptr, ptr %5, align 8, !tbaa !18
  %21 = getelementptr inbounds nuw %struct.yy_buffer_state, ptr %20, i32 0, i32 1
  store ptr %19, ptr %21, align 8, !tbaa !63
  %22 = load ptr, ptr %5, align 8, !tbaa !18
  %23 = getelementptr inbounds nuw %struct.yy_buffer_state, ptr %22, i32 0, i32 1
  %24 = load ptr, ptr %23, align 8, !tbaa !63
  %25 = icmp ne ptr %24, null
  br i1 %25, label %27, label %26

26:                                               ; preds = %10
  call void @_ZL14yy_fatal_errorPKc(ptr noundef @.str.35) #26
  unreachable

27:                                               ; preds = %10
  %28 = load ptr, ptr %5, align 8, !tbaa !18
  %29 = getelementptr inbounds nuw %struct.yy_buffer_state, ptr %28, i32 0, i32 5
  store i32 1, ptr %29, align 8, !tbaa !66
  %30 = load ptr, ptr %5, align 8, !tbaa !18
  %31 = load ptr, ptr %3, align 8, !tbaa !13
  call void @_ZL20V3PreLex_init_bufferP15yy_buffer_stateP8_IO_FILE(ptr noundef %30, ptr noundef %31)
  %32 = load ptr, ptr %5, align 8, !tbaa !18
  call void @llvm.lifetime.end.p0(i64 8, ptr %5) #3
  ret ptr %32
}

; Function Attrs: mustprogress uwtable
define internal void @_ZL27V3PreLexensure_buffer_stackv() #5 {
  %1 = alloca i64, align 8
  %2 = alloca i32, align 4
  %3 = alloca i64, align 8
  call void @llvm.lifetime.start.p0(i64 8, ptr %1) #3
  %4 = load ptr, ptr @_ZL15yy_buffer_stack, align 8, !tbaa !15
  %5 = icmp ne ptr %4, null
  br i1 %5, label %18, label %6

6:                                                ; preds = %0
  store i64 1, ptr %1, align 8, !tbaa !11
  %7 = load i64, ptr %1, align 8, !tbaa !11
  %8 = mul i64 %7, 8
  %9 = call noundef ptr @_Z13V3PreLexallocm(i64 noundef %8)
  store ptr %9, ptr @_ZL15yy_buffer_stack, align 8, !tbaa !15
  %10 = load ptr, ptr @_ZL15yy_buffer_stack, align 8, !tbaa !15
  %11 = icmp ne ptr %10, null
  br i1 %11, label %13, label %12

12:                                               ; preds = %6
  call void @_ZL14yy_fatal_errorPKc(ptr noundef @.str.235) #26
  unreachable

13:                                               ; preds = %6
  %14 = load ptr, ptr @_ZL15yy_buffer_stack, align 8, !tbaa !15
  %15 = load i64, ptr %1, align 8, !tbaa !11
  %16 = mul i64 %15, 8
  call void @llvm.memset.p0.i64(ptr align 8 %14, i8 0, i64 %16, i1 false)
  %17 = load i64, ptr %1, align 8, !tbaa !11
  store i64 %17, ptr @_ZL19yy_buffer_stack_max, align 8, !tbaa !11
  store i64 0, ptr @_ZL19yy_buffer_stack_top, align 8, !tbaa !11
  store i32 1, ptr %2, align 4
  br label %42

18:                                               ; preds = %0
  %19 = load i64, ptr @_ZL19yy_buffer_stack_top, align 8, !tbaa !11
  %20 = load i64, ptr @_ZL19yy_buffer_stack_max, align 8, !tbaa !11
  %21 = sub i64 %20, 1
  %22 = icmp uge i64 %19, %21
  br i1 %22, label %23, label %41

23:                                               ; preds = %18
  call void @llvm.lifetime.start.p0(i64 8, ptr %3) #3
  store i64 8, ptr %3, align 8, !tbaa !11
  %24 = load i64, ptr @_ZL19yy_buffer_stack_max, align 8, !tbaa !11
  %25 = load i64, ptr %3, align 8, !tbaa !11
  %26 = add i64 %24, %25
  store i64 %26, ptr %1, align 8, !tbaa !11
  %27 = load ptr, ptr @_ZL15yy_buffer_stack, align 8, !tbaa !15
  %28 = load i64, ptr %1, align 8, !tbaa !11
  %29 = mul i64 %28, 8
  %30 = call noundef ptr @_Z15V3PreLexreallocPvm(ptr noundef %27, i64 noundef %29)
  store ptr %30, ptr @_ZL15yy_buffer_stack, align 8, !tbaa !15
  %31 = load ptr, ptr @_ZL15yy_buffer_stack, align 8, !tbaa !15
  %32 = icmp ne ptr %31, null
  br i1 %32, label %34, label %33

33:                                               ; preds = %23
  call void @_ZL14yy_fatal_errorPKc(ptr noundef @.str.235) #26
  unreachable

34:                                               ; preds = %23
  %35 = load ptr, ptr @_ZL15yy_buffer_stack, align 8, !tbaa !15
  %36 = load i64, ptr @_ZL19yy_buffer_stack_max, align 8, !tbaa !11
  %37 = getelementptr inbounds nuw ptr, ptr %35, i64 %36
  %38 = load i64, ptr %3, align 8, !tbaa !11
  %39 = mul i64 %38, 8
  call void @llvm.memset.p0.i64(ptr align 8 %37, i8 0, i64 %39, i1 false)
  %40 = load i64, ptr %1, align 8, !tbaa !11
  store i64 %40, ptr @_ZL19yy_buffer_stack_max, align 8, !tbaa !11
  call void @llvm.lifetime.end.p0(i64 8, ptr %3) #3
  br label %41

41:                                               ; preds = %34, %18
  store i32 0, ptr %2, align 4
  br label %42

42:                                               ; preds = %41, %13
  call void @llvm.lifetime.end.p0(i64 8, ptr %1) #3
  %43 = load i32, ptr %2, align 4
  switch i32 %43, label %45 [
    i32 0, label %44
    i32 1, label %44
  ]

44:                                               ; preds = %42, %42
  ret void

45:                                               ; preds = %42
  unreachable
}

; Function Attrs: mustprogress uwtable
define dso_local void @_Z15V3PreLexrestartP8_IO_FILE(ptr noundef %0) #5 {
  %2 = alloca ptr, align 8
  store ptr %0, ptr %2, align 8, !tbaa !13
  %3 = load ptr, ptr @_ZL15yy_buffer_stack, align 8, !tbaa !15
  %4 = icmp ne ptr %3, null
  br i1 %4, label %5, label %10

5:                                                ; preds = %1
  %6 = load ptr, ptr @_ZL15yy_buffer_stack, align 8, !tbaa !15
  %7 = load i64, ptr @_ZL19yy_buffer_stack_top, align 8, !tbaa !11
  %8 = getelementptr inbounds nuw ptr, ptr %6, i64 %7
  %9 = load ptr, ptr %8, align 8, !tbaa !18
  br label %11

10:                                               ; preds = %1
  br label %11

11:                                               ; preds = %10, %5
  %12 = phi ptr [ %9, %5 ], [ null, %10 ]
  %13 = icmp ne ptr %12, null
  br i1 %13, label %20, label %14

14:                                               ; preds = %11
  call void @_ZL27V3PreLexensure_buffer_stackv()
  %15 = load ptr, ptr @V3PreLexin, align 8, !tbaa !13
  %16 = call noundef ptr @_Z22V3PreLex_create_bufferP8_IO_FILEi(ptr noundef %15, i32 noundef 16384)
  %17 = load ptr, ptr @_ZL15yy_buffer_stack, align 8, !tbaa !15
  %18 = load i64, ptr @_ZL19yy_buffer_stack_top, align 8, !tbaa !11
  %19 = getelementptr inbounds nuw ptr, ptr %17, i64 %18
  store ptr %16, ptr %19, align 8, !tbaa !18
  br label %20

20:                                               ; preds = %14, %11
  %21 = load ptr, ptr @_ZL15yy_buffer_stack, align 8, !tbaa !15
  %22 = icmp ne ptr %21, null
  br i1 %22, label %23, label %28

23:                                               ; preds = %20
  %24 = load ptr, ptr @_ZL15yy_buffer_stack, align 8, !tbaa !15
  %25 = load i64, ptr @_ZL19yy_buffer_stack_top, align 8, !tbaa !11
  %26 = getelementptr inbounds nuw ptr, ptr %24, i64 %25
  %27 = load ptr, ptr %26, align 8, !tbaa !18
  br label %29

28:                                               ; preds = %20
  br label %29

29:                                               ; preds = %28, %23
  %30 = phi ptr [ %27, %23 ], [ null, %28 ]
  %31 = load ptr, ptr %2, align 8, !tbaa !13
  call void @_ZL20V3PreLex_init_bufferP15yy_buffer_stateP8_IO_FILE(ptr noundef %30, ptr noundef %31)
  call void @_ZL26V3PreLex_load_buffer_statev()
  ret void
}