; Function Attrs: mustprogress nounwind uwtable
define dso_local void @_Z15V3PreLexrestartP8_IO_FILE(ptr noundef %0) local_unnamed_addr #7 {
  %2 = load ptr, ptr @_ZL15yy_buffer_stack, align 8, !tbaa !13
  %.not = icmp eq ptr %2, null
  br i1 %.not, label %8, label %3

3:                                                ; preds = %1
  %4 = load i64, ptr @_ZL19yy_buffer_stack_top, align 8, !tbaa !16
  %5 = getelementptr inbounds nuw ptr, ptr %2, i64 %4
  %6 = load ptr, ptr %5, align 8, !tbaa !18
  %7 = icmp eq ptr %6, null
  br i1 %7, label %.critedge, label %33

8:                                                ; preds = %1
  %9 = tail call noalias noundef dereferenceable_or_null(8) ptr @malloc(i64 noundef 8) #41
  store ptr %9, ptr @_ZL15yy_buffer_stack, align 8, !tbaa !13
  %.not9.i = icmp eq ptr %9, null
  br i1 %.not9.i, label %10, label %11

10:                                               ; preds = %8
  tail call fastcc void @_ZL14yy_fatal_errorPKc(ptr noundef nonnull @.str.235) #42
  unreachable

11:                                               ; preds = %8
  store i64 0, ptr %9, align 8
  store i64 1, ptr @_ZL19yy_buffer_stack_max, align 8, !tbaa !16
  store i64 0, ptr @_ZL19yy_buffer_stack_top, align 8, !tbaa !16
  br label %_ZL27V3PreLexensure_buffer_stackv.exit

.critedge:                                        ; preds = %3
  %12 = load i64, ptr @_ZL19yy_buffer_stack_max, align 8, !tbaa !16
  %13 = add i64 %12, -1
  %.not10.i = icmp ult i64 %4, %13
  br i1 %.not10.i, label %_ZL27V3PreLexensure_buffer_stackv.exit, label %14

14:                                               ; preds = %.critedge
  %15 = add i64 %12, 8
  %16 = shl i64 %15, 3
  %17 = tail call noalias noundef ptr @realloc(ptr noundef nonnull %2, i64 noundef %16) #43
  store ptr %17, ptr @_ZL15yy_buffer_stack, align 8, !tbaa !13
  %.not11.i = icmp eq ptr %17, null
  br i1 %.not11.i, label %18, label %19

18:                                               ; preds = %14
  tail call fastcc void @_ZL14yy_fatal_errorPKc(ptr noundef nonnull @.str.235) #42
  unreachable

19:                                               ; preds = %14
  %20 = getelementptr inbounds nuw ptr, ptr %17, i64 %12
  tail call void @llvm.memset.p0.i64(ptr noundef nonnull align 8 dereferenceable(64) %20, i8 0, i64 64, i1 false)
  store i64 %15, ptr @_ZL19yy_buffer_stack_max, align 8, !tbaa !16
  br label %_ZL27V3PreLexensure_buffer_stackv.exit

_ZL27V3PreLexensure_buffer_stackv.exit:           ; preds = %11, %.critedge, %19
  %21 = load ptr, ptr @V3PreLexin, align 8, !tbaa !11
  %22 = tail call noalias noundef dereferenceable_or_null(64) ptr @malloc(i64 noundef 64) #41
  %.not.i4 = icmp eq ptr %22, null
  br i1 %.not.i4, label %23, label %24

23:                                               ; preds = %_ZL27V3PreLexensure_buffer_stackv.exit
  tail call fastcc void @_ZL14yy_fatal_errorPKc(ptr noundef nonnull @.str.35) #42
  unreachable

24:                                               ; preds = %_ZL27V3PreLexensure_buffer_stackv.exit
  %25 = getelementptr inbounds nuw i8, ptr %22, i64 24
  store i32 16384, ptr %25, align 8, !tbaa !20
  %26 = tail call noalias noundef dereferenceable_or_null(16386) ptr @malloc(i64 noundef 16386) #41
  %27 = getelementptr inbounds nuw i8, ptr %22, i64 8
  store ptr %26, ptr %27, align 8, !tbaa !22
  %.not9.i5 = icmp eq ptr %26, null
  br i1 %.not9.i5, label %28, label %.thread

28:                                               ; preds = %24
  tail call fastcc void @_ZL14yy_fatal_errorPKc(ptr noundef nonnull @.str.35) #42
  unreachable

.thread:                                          ; preds = %24
  %29 = getelementptr inbounds nuw i8, ptr %22, i64 32
  store i32 1, ptr %29, align 8, !tbaa !23
  tail call fastcc void @_ZL20V3PreLex_init_bufferP15yy_buffer_stateP8_IO_FILE(ptr noundef nonnull %22, ptr noundef %21)
  %30 = load ptr, ptr @_ZL15yy_buffer_stack, align 8, !tbaa !13
  %31 = load i64, ptr @_ZL19yy_buffer_stack_top, align 8, !tbaa !16
  %32 = getelementptr inbounds nuw ptr, ptr %30, i64 %31
  store ptr %22, ptr %32, align 8, !tbaa !18
  br label %33

33:                                               ; preds = %.thread, %3
  %34 = phi ptr [ %22, %.thread ], [ %6, %3 ]
  tail call fastcc void @_ZL20V3PreLex_init_bufferP15yy_buffer_stateP8_IO_FILE(ptr noundef nonnull %34, ptr noundef %0)
  %35 = load ptr, ptr @_ZL15yy_buffer_stack, align 8, !tbaa !13
  %36 = load i64, ptr @_ZL19yy_buffer_stack_top, align 8, !tbaa !16
  %37 = getelementptr inbounds nuw ptr, ptr %35, i64 %36
  %38 = load ptr, ptr %37, align 8, !tbaa !18
  %39 = getelementptr inbounds nuw i8, ptr %38, i64 28
  %40 = load i32, ptr %39, align 4, !tbaa !24
  store i32 %40, ptr @_ZL10yy_n_chars, align 4, !tbaa !9
  %41 = getelementptr inbounds nuw i8, ptr %38, i64 16
  %42 = load ptr, ptr %41, align 8, !tbaa !25
  store ptr %42, ptr @_ZL10yy_c_buf_p, align 8, !tbaa !4
  store ptr %42, ptr @V3PreLextext, align 8, !tbaa !4
  %43 = load ptr, ptr %38, align 8, !tbaa !26
  store ptr %43, ptr @V3PreLexin, align 8, !tbaa !11
  %44 = load i8, ptr %42, align 1, !tbaa !27
  store i8 %44, ptr @_ZL12yy_hold_char, align 1, !tbaa !27
  ret void
}